; ModuleID = '37/925.c'
source_filename = "37/925.c"
target datalayout = "e-m:e-p270:32:32-p271:32:32-p272:64:64-i64:64-f80:128-n8:16:32:64-S128"
target triple = "x86_64-pc-linux-gnu"

@.str = private unnamed_addr constant [3 x i8] c"%d\00", align 1
@.str.1 = private unnamed_addr constant [3 x i8] c"%s\00", align 1
@.str.2 = private unnamed_addr constant [4 x i8] c"%c\0A\00", align 1
@.str.3 = private unnamed_addr constant [4 x i8] c"no\0A\00", align 1

; Function Attrs: noinline nounwind uwtable
define dso_local i32 @main(i32 %0, i8** %1) #0 {
  %3 = alloca i32, align 4
  %4 = alloca i32, align 4
  %5 = alloca i8**, align 8
  %6 = alloca i32, align 4
  %7 = alloca i32, align 4
  %8 = alloca i32, align 4
  %9 = alloca i32, align 4
  %10 = alloca i32, align 4
  %11 = alloca i32, align 4
  %12 = alloca [100001 x i8], align 16
  store i32 0, i32* %3, align 4
  store i32 %0, i32* %4, align 4
  store i8** %1, i8*** %5, align 8
  %13 = call i32 (i8*, ...) @__isoc99_scanf(i8* getelementptr inbounds ([3 x i8], [3 x i8]* @.str, i64 0, i64 0), i32* %6)
  store i32 0, i32* %8, align 4
  br label %14

14:                                               ; preds = %85, %2
  %15 = load i32, i32* %8, align 4
  %16 = load i32, i32* %6, align 4
  %17 = icmp slt i32 %15, %16
  br i1 %17, label %18, label %88

18:                                               ; preds = %14
  store i32 1, i32* %11, align 4
  %19 = getelementptr inbounds [100001 x i8], [100001 x i8]* %12, i64 0, i64 0
  %20 = call i32 (i8*, ...) @__isoc99_scanf(i8* getelementptr inbounds ([3 x i8], [3 x i8]* @.str.1, i64 0, i64 0), i8* %19)
  %21 = getelementptr inbounds [100001 x i8], [100001 x i8]* %12, i64 0, i64 0
  %22 = call i64 @strlen(i8* %21) #3
  %23 = trunc i64 %22 to i32
  store i32 %23, i32* %7, align 4
  store i32 0, i32* %9, align 4
  br label %24

24:                                               ; preds = %75, %18
  %25 = load i32, i32* %9, align 4
  %26 = sext i32 %25 to i64
  %27 = getelementptr inbounds [100001 x i8], [100001 x i8]* %12, i64 0, i64 %26
  %28 = load i8, i8* %27, align 1
  %29 = icmp ne i8 %28, 0
  br i1 %29, label %30, label %78

30:                                               ; preds = %24
  store i32 0, i32* %10, align 4
  br label %31

31:                                               ; preds = %56, %30
  %32 = load i32, i32* %10, align 4
  %33 = sext i32 %32 to i64
  %34 = getelementptr inbounds [100001 x i8], [100001 x i8]* %12, i64 0, i64 %33
  %35 = load i8, i8* %34, align 1
  %36 = icmp ne i8 %35, 0
  br i1 %36, label %37, label %59

37:                                               ; preds = %31
  %38 = load i32, i32* %9, align 4
  %39 = load i32, i32* %10, align 4
  %40 = icmp eq i32 %38, %39
  br i1 %40, label %41, label %42

41:                                               ; preds = %37
  br label %56

42:                                               ; preds = %37
  %43 = load i32, i32* %9, align 4
  %44 = sext i32 %43 to i64
  %45 = getelementptr inbounds [100001 x i8], [100001 x i8]* %12, i64 0, i64 %44
  %46 = load i8, i8* %45, align 1
  %47 = sext i8 %46 to i32
  %48 = load i32, i32* %10, align 4
  %49 = sext i32 %48 to i64
  %50 = getelementptr inbounds [100001 x i8], [100001 x i8]* %12, i64 0, i64 %49
  %51 = load i8, i8* %50, align 1
  %52 = sext i8 %51 to i32
  %53 = icmp eq i32 %47, %52
  br i1 %53, label %54, label %55

54:                                               ; preds = %42
  br label %59

55:                                               ; preds = %42
  br label %56

56:                                               ; preds = %55, %41
  %57 = load i32, i32* %10, align 4
  %58 = add nsw i32 %57, 1
  store i32 %58, i32* %10, align 4
  br label %31

59:                                               ; preds = %54, %31
  %60 = load i32, i32* %10, align 4
  %61 = load i32, i32* %7, align 4
  %62 = icmp eq i32 %60, %61
  br i1 %62, label %63, label %70

63:                                               ; preds = %59
  %64 = load i32, i32* %9, align 4
  %65 = sext i32 %64 to i64
  %66 = getelementptr inbounds [100001 x i8], [100001 x i8]* %12, i64 0, i64 %65
  %67 = load i8, i8* %66, align 1
  %68 = sext i8 %67 to i32
  %69 = call i32 (i8*, ...) @printf(i8* getelementptr inbounds ([4 x i8], [4 x i8]* @.str.2, i64 0, i64 0), i32 %68)
  store i32 0, i32* %11, align 4
  br label %78

70:                                               ; preds = %59
  %71 = load i32, i32* %11, align 4
  %72 = icmp eq i32 %71, 0
  br i1 %72, label %73, label %74

73:                                               ; preds = %70
  br label %78

74:                                               ; preds = %70
  br label %75

75:                                               ; preds = %74
  %76 = load i32, i32* %9, align 4
  %77 = add nsw i32 %76, 1
  store i32 %77, i32* %9, align 4
  br label %24

78:                                               ; preds = %73, %63, %24
  %79 = load i32, i32* %9, align 4
  %80 = load i32, i32* %7, align 4
  %81 = icmp eq i32 %79, %80
  br i1 %81, label %82, label %84

82:                                               ; preds = %78
  %83 = call i32 (i8*, ...) @printf(i8* getelementptr inbounds ([4 x i8], [4 x i8]* @.str.3, i64 0, i64 0))
  br label %84

84:                                               ; preds = %82, %78
  br label %85

85:                                               ; preds = %84
  %86 = load i32, i32* %8, align 4
  %87 = add nsw i32 %86, 1
  store i32 %87, i32* %8, align 4
  br label %14

88:                                               ; preds = %14
  ret i32 0
}

declare dso_local i32 @__isoc99_scanf(i8*, ...) #1

; Function Attrs: nounwind readonly
declare dso_local i64 @strlen(i8*) #2

declare dso_local i32 @printf(i8*, ...) #1


!llvm.module.flags = !{!0}
!llvm.ident = !{!1}

!0 = !{i32 1, !"wchar_size", i32 4}
!1 = !{!"clang version 10.0.0-4ubuntu1 "}
