; ModuleID = 'source-C-CXX/36/925.c'
source_filename = "source-C-CXX/36/925.c"
target datalayout = "e-m:e-p270:32:32-p271:32:32-p272:64:64-i64:64-f80:128-n8:16:32:64-S128"
target triple = "x86_64-pc-linux-gnu"

@.str = private unnamed_addr constant [3 x i8] c"%d\00", align 1
@.str.1 = private unnamed_addr constant [3 x i8] c"%s\00", align 1
@.str.2 = private unnamed_addr constant [4 x i8] c"%c\0A\00", align 1
@str = private unnamed_addr constant [3 x i8] c"no\00", align 1

; Function Attrs: nofree nounwind sspstrong uwtable
define dso_local i32 @main(i32 %0, i8** nocapture readnone %1) local_unnamed_addr #0 {
  %3 = alloca i32, align 4
  %4 = alloca [100001 x i8], align 16
  %5 = bitcast i32* %3 to i8*
  call void @llvm.lifetime.start.p0i8(i64 4, i8* nonnull %5) #5
  %6 = getelementptr inbounds [100001 x i8], [100001 x i8]* %4, i64 0, i64 0
  call void @llvm.lifetime.start.p0i8(i64 100001, i8* nonnull %6) #5
  %7 = call i32 (i8*, ...) @__isoc99_scanf(i8* getelementptr inbounds ([3 x i8], [3 x i8]* @.str, i64 0, i64 0), i32* nonnull %3)
  %8 = load i32, i32* %3, align 4, !tbaa !5
  %9 = icmp sgt i32 %8, 0
  br i1 %9, label %10, label %58

10:                                               ; preds = %2, %54
  %11 = phi i32 [ %55, %54 ], [ 0, %2 ]
  %12 = call i32 (i8*, ...) @__isoc99_scanf(i8* getelementptr inbounds ([3 x i8], [3 x i8]* @.str.1, i64 0, i64 0), i8* nonnull %6)
  %13 = call i64 @strlen(i8* noundef nonnull %6) #6
  %14 = trunc i64 %13 to i32
  %15 = load i8, i8* %6, align 16
  %16 = icmp eq i8 %15, 0
  br i1 %16, label %49, label %17

17:                                               ; preds = %10, %42
  %18 = phi i64 [ %43, %42 ], [ 0, %10 ]
  %19 = phi i8 [ %45, %42 ], [ %15, %10 ]
  br label %20

20:                                               ; preds = %17, %27
  %21 = phi i64 [ 0, %17 ], [ %28, %27 ]
  %22 = phi i8 [ %15, %17 ], [ %31, %27 ]
  %23 = phi i32 [ 0, %17 ], [ %29, %27 ]
  %24 = icmp ne i64 %18, %21
  %25 = icmp eq i8 %19, %22
  %26 = select i1 %24, i1 %25, i1 false
  br i1 %26, label %33, label %27

27:                                               ; preds = %20
  %28 = add nuw i64 %21, 1
  %29 = add nuw nsw i32 %23, 1
  %30 = getelementptr inbounds [100001 x i8], [100001 x i8]* %4, i64 0, i64 %28
  %31 = load i8, i8* %30, align 1, !tbaa !9
  %32 = icmp eq i8 %31, 0
  br i1 %32, label %35, label %20, !llvm.loop !10

33:                                               ; preds = %20
  %34 = trunc i64 %21 to i32
  br label %35

35:                                               ; preds = %27, %33
  %36 = phi i32 [ %34, %33 ], [ %29, %27 ]
  %37 = icmp eq i32 %36, %14
  br i1 %37, label %38, label %42

38:                                               ; preds = %35
  %39 = trunc i64 %18 to i32
  %40 = sext i8 %19 to i32
  %41 = call i32 (i8*, ...) @printf(i8* nonnull dereferenceable(1) getelementptr inbounds ([4 x i8], [4 x i8]* @.str.2, i64 0, i64 0), i32 %40)
  br label %49

42:                                               ; preds = %35
  %43 = add nuw i64 %18, 1
  %44 = getelementptr inbounds [100001 x i8], [100001 x i8]* %4, i64 0, i64 %43
  %45 = load i8, i8* %44, align 1, !tbaa !9
  %46 = icmp eq i8 %45, 0
  br i1 %46, label %47, label %17, !llvm.loop !12

47:                                               ; preds = %42
  %48 = trunc i64 %43 to i32
  br label %49

49:                                               ; preds = %47, %10, %38
  %50 = phi i32 [ %39, %38 ], [ 0, %10 ], [ %48, %47 ]
  %51 = icmp eq i32 %50, %14
  br i1 %51, label %52, label %54

52:                                               ; preds = %49
  %53 = call i32 @puts(i8* nonnull dereferenceable(1) getelementptr inbounds ([3 x i8], [3 x i8]* @str, i64 0, i64 0))
  br label %54

54:                                               ; preds = %49, %52
  %55 = add nuw nsw i32 %11, 1
  %56 = load i32, i32* %3, align 4, !tbaa !5
  %57 = icmp slt i32 %55, %56
  br i1 %57, label %10, label %58, !llvm.loop !13

58:                                               ; preds = %54, %2
  call void @llvm.lifetime.end.p0i8(i64 100001, i8* nonnull %6) #5
  call void @llvm.lifetime.end.p0i8(i64 4, i8* nonnull %5) #5
  ret i32 0
}

; Function Attrs: argmemonly mustprogress nofree nosync nounwind willreturn
declare void @llvm.lifetime.start.p0i8(i64 immarg, i8* nocapture) #1

; Function Attrs: nofree nounwind
declare noundef i32 @__isoc99_scanf(i8* nocapture noundef readonly, ...) local_unnamed_addr #2

; Function Attrs: argmemonly mustprogress nofree nounwind readonly willreturn
declare i64 @strlen(i8* nocapture) local_unnamed_addr #3

; Function Attrs: nofree nounwind
declare noundef i32 @printf(i8* nocapture noundef readonly, ...) local_unnamed_addr #2

; Function Attrs: argmemonly mustprogress nofree nosync nounwind willreturn
declare void @llvm.lifetime.end.p0i8(i64 immarg, i8* nocapture) #1

; Function Attrs: nofree nounwind
declare noundef i32 @puts(i8* nocapture noundef readonly) local_unnamed_addr #4


!llvm.module.flags = !{!0, !1, !2, !3}
!llvm.ident = !{!4}

!0 = !{i32 1, !"wchar_size", i32 4}
!1 = !{i32 7, !"PIC Level", i32 2}
!2 = !{i32 7, !"PIE Level", i32 2}
!3 = !{i32 7, !"uwtable", i32 1}
!4 = !{!"clang version 13.0.0"}
!5 = !{!6, !6, i64 0}
!6 = !{!"int", !7, i64 0}
!7 = !{!"omnipotent char", !8, i64 0}
!8 = !{!"Simple C/C++ TBAA"}
!9 = !{!7, !7, i64 0}
!10 = distinct !{!10, !11}
!11 = !{!"llvm.loop.mustprogress"}
!12 = distinct !{!12, !11}
!13 = distinct !{!13, !11}
